(dp0
S'BRCA:499717:Tumor'
p1
S'BRCA:499583:Normal'
p2
sS'BRCA:499709:Tumor'
p3
S'BRCA:499575:Normal'
p4
sS'BRCApos:499665:Tumor'
p5
S'BRCApos:499533:Normal'
p6
sS'BRCAneg:499659:Tumor'
p7
S'BRCAneg:499529:Normal'
p8
sS'KIRC:242:Tumor'
p9
S'KIRC:243:Normal'
p10
sS'PAADHussain1:NCIA-01770:Tumor'
p11
S'PAADHussain1:NCIA-01769:Normal'
p12
sS'KICH:RCC15:Tumor'
p13
S'KICH:RCC16:Normal'
p14
sS'KIRC:364:Tumor'
p15
S'KIRC:365:Normal'
p16
sS'KIRC:183:Tumor'
p17
S'KIRC:184:Normal'
p18
sS'PAADHussain2:NCIA-04191:Tumor'
p19
S'PAADHussain2:NCIA-04192:Normal'
p20
sS'PAADHussain2:NCIA-04189:Tumor'
p21
S'PAADHussain2:NCIA-04190:Normal'
p22
sS'KIRC:404:Tumor'
p23
S'KIRC:405:Normal'
p24
sS'KIRC:266:Tumor'
p25
S'KIRC:267:Normal'
p26
sS'BRCA:499725:Tumor'
p27
S'BRCA:499591:Normal'
p28
sS'BRCA:499779:Tumor'
p29
S'BRCA:499643:Normal'
p30
sS'PAAD:22210-0082Tumor:Tumor'
p31
S'PAAD:22210-0082Normal:Normal'
p32
sS'BRCA:499775:Tumor'
p33
S'BRCA:499639:Normal'
p34
sS'BRCA:499659:Tumor'
p35
S'BRCA:499529:Normal'
p36
sS'PRAD:T9:Tumor'
p37
S'PRAD:N1:Normal'
p38
sS'KIRC:53:Tumor'
p39
S'KIRC:54:Normal'
p40
sS'KIRC:161:Tumor'
p41
S'KIRC:162:Normal'
p42
sS'KIRC:256:Tumor'
p43
S'KIRC:257:Normal'
p44
sS'BLCA:P13T.MCG:Tumor'
p45
S'BLCA:P8N.MCG:Normal'
p46
sS'COAD:2:Tumor'
p47
S'COAD:2:Normal'
p48
sS'STAD:12:Tumor'
p49
S'STAD:12:Normal'
p50
sS'PAADHussain2:NCIA-04193:Tumor'
p51
S'PAADHussain2:NCIA-04194:Normal'
p52
sS'PAAD:22210-0034Tumor:Tumor'
p53
S'PAAD:22210-0034Normal:Normal'
p54
sS'STAD:2:Tumor'
p55
S'STAD:2:Normal'
p56
sS'PAADHussain1:NCIA-01784:Tumor'
p57
S'PAADHussain1:NCIA-01783:Normal'
p58
sS'BRCAneg:499673:Tumor'
p59
S'BRCAneg:499543:Normal'
p60
sS'KIRC:224:Tumor'
p61
S'KIRC:225:Normal'
p62
sS'BRCA:499731:Tumor'
p63
S'BRCA:499597:Normal'
p64
sS'KIRC:185:Tumor'
p65
S'KIRC:186:Normal'
p66
sS'KIRC:55:Tumor'
p67
S'KIRC:56:Normal'
p68
sS'BRCApos:499749:Tumor'
p69
S'BRCApos:499615:Normal'
p70
sS'KIRC:71:Tumor'
p71
S'KIRC:72:Normal'
p72
sS'KIRC:352:Tumor'
p73
S'KIRC:353:Normal'
p74
sS'KIRC:33:Tumor'
p75
S'KIRC:34:Normal'
p76
sS'BRCA:499665:Tumor'
p77
S'BRCA:499533:Normal'
p78
sS'BRCAneg:499735:Tumor'
p79
S'BRCAneg:499601:Normal'
p80
sS'KICH:RCC19:Tumor'
p81
S'KICH:RCC20:Normal'
p82
sS'BLCA:P8T.EU:Tumor'
p83
S'BLCA:P8N.EU:Normal'
p84
sS'KICH:RCC5:Tumor'
p85
S'KICH:RCC6:Normal'
p86
sS'KIRC:290:Tumor'
p87
S'KIRC:291:Normal'
p88
sS'BRCAneg:499715:Tumor'
p89
S'BRCAneg:499581:Normal'
p90
sS'BRCApos:499747:Tumor'
p91
S'BRCApos:499613:Normal'
p92
sS'BRCA:499739:Tumor'
p93
S'BRCA:499607:Normal'
p94
sS'PRADLODA:cp42:Tumor'
p95
S'PRADLODA:cp34:Normal'
p96
sS'PAAD:22210-0062Tumor:Tumor'
p97
S'PAAD:22210-0062Normal:Normal'
p98
sS'BRCA:499733:Tumor'
p99
S'BRCA:499599:Normal'
p100
sS'BRCA:499707:Tumor'
p101
S'BRCA:499573:Normal'
p102
sS'PAAD:22210-0067Tumor:Tumor'
p103
S'PAAD:22210-0067Normal:Normal'
p104
sS'PRAD:T5:Tumor'
p105
S'PRAD:N5:Normal'
p106
sS'KIRC:83:Tumor'
p107
S'KIRC:84:Normal'
p108
sS'BRCA:499687:Tumor'
p109
S'BRCA:499555:Normal'
p110
sS'PRADLODA:cp11:Tumor'
p111
S'PRADLODA:cp19:Normal'
p112
sS'BRCA:499673:Tumor'
p113
S'BRCA:499543:Normal'
p114
sS'BRCApos:499709:Tumor'
p115
S'BRCApos:499575:Normal'
p116
sS'STAD:7:Tumor'
p117
S'STAD:7:Normal'
p118
sS'PAAD:22210-0022Tumor:Tumor'
p119
S'PAAD:22210-0022Normal:Normal'
p120
sS'KIRC:79:Tumor'
p121
S'KIRC:80:Normal'
p122
sS'PAAD:22210-0091Tumor:Tumor'
p123
S'PAAD:22210-0091Normal:Normal'
p124
sS'KIRC:286:Tumor'
p125
S'KIRC:287:Normal'
p126
sS'PAAD:22210-0029Tumor:Tumor'
p127
S'PAAD:22210-0029Normal:Normal'
p128
sS'BLCA:P9T.EU:Tumor'
p129
S'BLCA:P9N.EU:Normal'
p130
sS'KIRC:57:Tumor'
p131
S'KIRC:58:Normal'
p132
sS'BLCA:P5T.EU:Tumor'
p133
S'BLCA:P5N.EU:Normal'
p134
sS'PAAD:22210-0056Tumor:Tumor'
p135
S'PAAD:22210-0056Normal:Normal'
p136
sS'BRCApos:499779:Tumor'
p137
S'BRCApos:499643:Normal'
p138
sS'BRCApos:499663:Tumor'
p139
S'BRCApos:499535:Normal'
p140
sS'KIRC:294:Tumor'
p141
S'KIRC:295:Normal'
p142
sS'PAAD:22210-0085Tumor:Tumor'
p143
S'PAAD:22210-0085Normal:Normal'
p144
sS'KIRC:137:Tumor'
p145
S'KIRC:138:Normal'
p146
sS'KICH:RCC13:Tumor'
p147
S'KICH:RCC14:Normal'
p148
sS'PAAD:22210-0024Tumor:Tumor'
p149
S'PAAD:22210-0024Normal:Normal'
p150
sS'KIRC:358:Tumor'
p151
S'KIRC:359:Normal'
p152
sS'BRCA:499755:Tumor'
p153
S'BRCA:499619:Normal'
p154
sS'KIRC:95:Tumor'
p155
S'KIRC:96:Normal'
p156
sS'BRCAneg:499687:Tumor'
p157
S'BRCAneg:499555:Normal'
p158
sS'BRCApos:499703:Tumor'
p159
S'BRCApos:499569:Normal'
p160
sS'KIRC:402:Tumor'
p161
S'KIRC:403:Normal'
p162
sS'BRCApos:499701:Tumor'
p163
S'BRCApos:499567:Normal'
p164
sS'BRCA:499693:Tumor'
p165
S'BRCA:499559:Normal'
p166
sS'PRAD:T2:Tumor'
p167
S'PRAD:N2:Normal'
p168
sS'KIRC:252:Tumor'
p169
S'KIRC:253:Normal'
p170
sS'BLCA:P7T.EU:Tumor'
p171
S'BLCA:P7N.EU:Normal'
p172
sS'KIRC:346:Tumor'
p173
S'KIRC:347:Normal'
p174
sS'BRCA:499749:Tumor'
p175
S'BRCA:499615:Normal'
p176
sS'KIRC:318:Tumor'
p177
S'KIRC:319:Normal'
p178
sS'BRCApos:499671:Tumor'
p179
S'BRCApos:499541:Normal'
p180
sS'COAD:13:Tumor'
p181
S'COAD:13:Normal'
p182
sS'PAADHussain1:NCIA-01756:Tumor'
p183
S'PAADHussain1:NCIA-01755:Normal'
p184
sS'KIRC:268:Tumor'
p185
S'KIRC:269:Normal'
p186
sS'PAADHussain1:NCIA-01786:Tumor'
p187
S'PAADHussain1:NCIA-01785:Normal'
p188
sS'BLCA:P11T.MCG:Tumor'
p189
S'BLCA:P6N.MCG:Normal'
p190
sS'KIRC:244:Tumor'
p191
S'KIRC:245:Normal'
p192
sS'KIRC:324:Tumor'
p193
S'KIRC:325:Normal'
p194
sS'KICH:RCC9:Tumor'
p195
S'KICH:RCC10:Normal'
p196
sS'KIRC:45:Tumor'
p197
S'KIRC:46:Normal'
p198
sS'PAAD:22210-0003Tumor:Tumor'
p199
S'PAAD:22210-0003Normal:Normal'
p200
sS'KIRC:300:Tumor'
p201
S'KIRC:301:Normal'
p202
sS'BRCApos:499757:Tumor'
p203
S'BRCApos:499621:Normal'
p204
sS'PAAD:22210-0039Tumor:Tumor'
p205
S'PAAD:22210-0039Normal:Normal'
p206
sS'BRCApos:499789:Tumor'
p207
S'BRCApos:499655:Normal'
p208
sS'BRCApos:499759:Tumor'
p209
S'BRCApos:499625:Normal'
p210
sS'KIRC:81:Tumor'
p211
S'KIRC:82:Normal'
p212
sS'KIRC:378:Tumor'
p213
S'KIRC:379:Normal'
p214
sS'BRCA:499773:Tumor'
p215
S'BRCA:499637:Normal'
p216
sS'BLCA:P9T.MCG:Tumor'
p217
S'BLCA:P4N.MCG:Normal'
p218
sS'PAADHussain1:NCIA-01788:Tumor'
p219
S'PAADHussain1:NCIA-01787:Normal'
p220
sS'COAD:14:Tumor'
p221
S'COAD:14:Normal'
p222
sS'COAD:15:Tumor'
p223
S'COAD:15:Normal'
p224
sS'PAAD:22210-0023Tumor:Tumor'
p225
S'PAAD:22210-0023Normal:Normal'
p226
sS'KIRC:147:Tumor'
p227
S'KIRC:148:Normal'
p228
sS'PAAD:22210-0054Tumor:Tumor'
p229
S'PAAD:22210-0054Normal:Normal'
p230
sS'KIRC:392:Tumor'
p231
S'KIRC:393:Normal'
p232
sS'BRCAneg:499681:Tumor'
p233
S'BRCAneg:499551:Normal'
p234
sS'KIRC:360:Tumor'
p235
S'KIRC:361:Normal'
p236
sS'BRCAneg:499755:Tumor'
p237
S'BRCAneg:499619:Normal'
p238
sS'KIRC:133:Tumor'
p239
S'KIRC:134:Normal'
p240
sS'BRCApos:499745:Tumor'
p241
S'BRCApos:499611:Normal'
p242
sS'BRCA:499763:Tumor'
p243
S'BRCA:499627:Normal'
p244
sS'KIRC:332:Tumor'
p245
S'KIRC:333:Normal'
p246
sS'BRCA:499777:Tumor'
p247
S'BRCA:499641:Normal'
p248
sS'PRADLODA:cp43:Tumor'
p249
S'PRADLODA:cp35:Normal'
p250
sS'BLCA:P1T.MCG:Tumor'
p251
S'BLCA:P1N.MCG:Normal'
p252
sS'KIRC:222:Tumor'
p253
S'KIRC:223:Normal'
p254
sS'KIRC:23:Tumor'
p255
S'KIRC:24:Normal'
p256
sS'BRCApos:499783:Tumor'
p257
S'BRCApos:499647:Normal'
p258
sS'KIRC:308:Tumor'
p259
S'KIRC:309:Normal'
p260
sS'PAADHussain2:NCIA-04179:Tumor'
p261
S'PAADHussain2:NCIA-04180:Normal'
p262
sS'KIRC:344:Tumor'
p263
S'KIRC:345:Normal'
p264
sS'KIRC:105:Tumor'
p265
S'KIRC:106:Normal'
p266
sS'BRCA:499719:Tumor'
p267
S'BRCA:499585:Normal'
p268
sS'PAAD:22210-0064Tumor:Tumor'
p269
S'PAAD:22210-0064Normal:Normal'
p270
sS'KIRC:354:Tumor'
p271
S'KIRC:355:Normal'
p272
sS'PAADHussain1:NCIA-01762:Tumor'
p273
S'PAADHussain1:NCIA-01761:Normal'
p274
sS'PAAD:22210-0038Tumor:Tumor'
p275
S'PAAD:22210-0038Normal:Normal'
p276
sS'BRCAneg:499787:Tumor'
p277
S'BRCAneg:499651:Normal'
p278
sS'PRADLODA:cp44:Tumor'
p279
S'PRADLODA:cp32:Normal'
p280
sS'KIRC:5:Tumor'
p281
S'KIRC:6:Normal'
p282
sS'BRCA:499705:Tumor'
p283
S'BRCA:499571:Normal'
p284
sS'BRCA:499685:Tumor'
p285
S'BRCA:499553:Normal'
p286
sS'PAADHussain2:NCIA-04177:Tumor'
p287
S'PAADHussain2:NCIA-04178:Normal'
p288
sS'KIRC:274:Tumor'
p289
S'KIRC:275:Normal'
p290
sS'KIRC:282:Tumor'
p291
S'KIRC:283:Normal'
p292
sS'PAAD:22210-0074Tumor:Tumor'
p293
S'PAAD:22210-0074Normal:Normal'
p294
sS'PAADHussain1:NCIA-01754:Tumor'
p295
S'PAADHussain1:NCIA-01753:Normal'
p296
sS'PRAD:T4:Tumor'
p297
S'PRAD:N4:Normal'
p298
sS'KIRC:280:Tumor'
p299
S'KIRC:281:Normal'
p300
sS'KIRC:276:Tumor'
p301
S'KIRC:277:Normal'
p302
sS'KIRC:326:Tumor'
p303
S'KIRC:327:Normal'
p304
sS'BRCA:499761:Tumor'
p305
S'BRCA:499653:Normal'
p306
sS'KIRC:362:Tumor'
p307
S'KIRC:363:Normal'
p308
sS'KIRC:334:Tumor'
p309
S'KIRC:335:Normal'
p310
sS'KIRC:262:Tumor'
p311
S'KIRC:263:Normal'
p312
sS'BRCApos:499719:Tumor'
p313
S'BRCApos:499585:Normal'
p314
sS'KIRC:230:Tumor'
p315
S'KIRC:231:Normal'
p316
sS'COAD:8:Tumor'
p317
S'COAD:8:Normal'
p318
sS'KIRC:113:Tumor'
p319
S'KIRC:114:Normal'
p320
sS'BRCAneg:499677:Tumor'
p321
S'BRCAneg:499547:Normal'
p322
sS'KIRC:91:Tumor'
p323
S'KIRC:92:Normal'
p324
sS'KIRC:85:Tumor'
p325
S'KIRC:86:Normal'
p326
sS'PRADLODA:cp67:Tumor'
p327
S'PRADLODA:cp72:Normal'
p328
sS'STAD:6:Tumor'
p329
S'STAD:6:Normal'
p330
sS'KIRC:240:Tumor'
p331
S'KIRC:241:Normal'
p332
sS'KIRC:304:Tumor'
p333
S'KIRC:305:Normal'
p334
sS'BRCApos:499697:Tumor'
p335
S'BRCApos:499563:Normal'
p336
sS'BRCApos:499733:Tumor'
p337
S'BRCApos:499599:Normal'
p338
sS'KIRC:250:Tumor'
p339
S'KIRC:251:Normal'
p340
sS'PAAD:22210-0012Tumor:Tumor'
p341
S'PAAD:22210-0012Normal:Normal'
p342
sS'KIRC:376:Tumor'
p343
S'KIRC:377:Normal'
p344
sS'BRCAneg:499657:Tumor'
p345
S'BRCAneg:499527:Normal'
p346
sS'PAADHussain1:NCIA-01796:Tumor'
p347
S'PAADHussain1:NCIA-01795:Normal'
p348
sS'BLCA:P15T.EU:Tumor'
p349
S'BLCA:P15N.EU:Normal'
p350
sS'BRCA:499789:Tumor'
p351
S'BRCA:499655:Normal'
p352
sS'KICH:RCC17:Tumor'
p353
S'KICH:RCC18:Normal'
p354
sS'KICH:RCC1:Tumor'
p355
S'KICH:RCC2:Normal'
p356
sS'PAADHussain2:NCIA-04185:Tumor'
p357
S'PAADHussain2:NCIA-04186:Normal'
p358
sS'PAAD:22210-0057Tumor:Tumor'
p359
S'PAAD:22210-0057Normal:Normal'
p360
sS'BRCAneg:499693:Tumor'
p361
S'BRCAneg:499559:Normal'
p362
sS'KIRC:394:Tumor'
p363
S'KIRC:395:Normal'
p364
sS'PAADHussain1:NCIA-01760:Tumor'
p365
S'PAADHussain1:NCIA-01759:Normal'
p366
sS'KIRC:37:Tumor'
p367
S'KIRC:38:Normal'
p368
sS'BRCA:499747:Tumor'
p369
S'BRCA:499613:Normal'
p370
sS'BRCApos:499669:Tumor'
p371
S'BRCApos:499539:Normal'
p372
sS'KIRC:175:Tumor'
p373
S'KIRC:176:Normal'
p374
sS'BRCApos:499769:Tumor'
p375
S'BRCApos:499633:Normal'
p376
sS'BRCAneg:499691:Tumor'
p377
S'BRCAneg:499557:Normal'
p378
sS'BLCA:P1T.EU:Tumor'
p379
S'BLCA:P1N.EU:Normal'
p380
sS'KIRC:340:Tumor'
p381
S'KIRC:341:Normal'
p382
sS'BRCApos:499775:Tumor'
p383
S'BRCApos:499639:Normal'
p384
sS'PRADLODA:cp41:Tumor'
p385
S'PRADLODA:cp33:Normal'
p386
sS'BRCApos:499711:Tumor'
p387
S'BRCApos:499577:Normal'
p388
sS'PAADHussain1:NCIA-01776:Tumor'
p389
S'PAADHussain1:NCIA-01775:Normal'
p390
sS'KIRC:292:Tumor'
p391
S'KIRC:293:Normal'
p392
sS'KIRC:310:Tumor'
p393
S'KIRC:311:Normal'
p394
sS'PAADHussain1:NCIA-01778:Tumor'
p395
S'PAADHussain1:NCIA-01777:Normal'
p396
sS'PAADHussain1:NCIA-01758:Tumor'
p397
S'PAADHussain1:NCIA-01757:Normal'
p398
sS'BRCA:499699:Tumor'
p399
S'BRCA:499565:Normal'
p400
sS'BRCApos:499729:Tumor'
p401
S'BRCApos:499593:Normal'
p402
sS'COAD:10:Tumor'
p403
S'COAD:10:Normal'
p404
sS'KIRC:123:Tumor'
p405
S'KIRC:124:Normal'
p406
sS'PAAD:22210-0042Tumor:Tumor'
p407
S'PAAD:22210-0042Normal:Normal'
p408
sS'KIRC:400:Tumor'
p409
S'KIRC:401:Normal'
p410
sS'KIRC:97:Tumor'
p411
S'KIRC:98:Normal'
p412
sS'PAADHussain1:NCIA-01766:Tumor'
p413
S'PAADHussain1:NCIA-01765:Normal'
p414
sS'KIRC:370:Tumor'
p415
S'KIRC:371:Normal'
p416
sS'PAADHussain1:NCIA-01768:Tumor'
p417
S'PAADHussain1:NCIA-01767:Normal'
p418
sS'KIRC:65:Tumor'
p419
S'KIRC:66:Normal'
p420
sS'PAADHussain2:NCIA-04167:Tumor'
p421
S'PAADHussain2:NCIA-04168:Normal'
p422
sS'PRADLODA:cp38:Tumor'
p423
S'PRADLODA:cp31:Normal'
p424
sS'COAD:3:Tumor'
p425
S'COAD:3:Normal'
p426
sS'KIRC:302:Tumor'
p427
S'KIRC:303:Normal'
p428
sS'PAAD:22210-0066Tumor:Tumor'
p429
S'PAAD:22210-0066Normal:Normal'
p430
sS'PAADHussain1:NCIA-01774:Tumor'
p431
S'PAADHussain1:NCIA-01773:Normal'
p432
sS'BRCAneg:499739:Tumor'
p433
S'BRCAneg:499607:Normal'
p434
sS'PAAD:22210-0013Tumor:Tumor'
p435
S'PAAD:22210-0013Normal:Normal'
p436
sS'BRCA:499669:Tumor'
p437
S'BRCA:499539:Normal'
p438
sS'PAAD:22210-0081Tumor:Tumor'
p439
S'PAAD:22210-0081Normal:Normal'
p440
sS'KIRC:350:Tumor'
p441
S'KIRC:351:Normal'
p442
sS'BRCApos:499717:Tumor'
p443
S'BRCApos:499583:Normal'
p444
sS'KIRC:380:Tumor'
p445
S'KIRC:381:Normal'
p446
sS'KIRC:165:Tumor'
p447
S'KIRC:166:Normal'
p448
sS'KIRC:366:Tumor'
p449
S'KIRC:367:Normal'
p450
sS'BRCA:499695:Tumor'
p451
S'BRCA:499561:Normal'
p452
sS'BRCApos:499731:Tumor'
p453
S'BRCApos:499597:Normal'
p454
sS'BRCAneg:499675:Tumor'
p455
S'BRCAneg:499545:Normal'
p456
sS'KIRC:278:Tumor'
p457
S'KIRC:279:Normal'
p458
sS'STAD:4:Tumor'
p459
S'STAD:4:Normal'
p460
sS'PAADHussain1:NCIA-01780:Tumor'
p461
S'PAADHussain1:NCIA-01779:Normal'
p462
sS'BRCA:499723:Tumor'
p463
S'BRCA:499589:Normal'
p464
sS'KIRC:298:Tumor'
p465
S'KIRC:299:Normal'
p466
sS'BRCA:499721:Tumor'
p467
S'BRCA:499587:Normal'
p468
sS'KIRC:386:Tumor'
p469
S'KIRC:387:Normal'
p470
sS'COAD:11:Tumor'
p471
S'COAD:11:Normal'
p472
sS'COAD:9:Tumor'
p473
S'COAD:9:Normal'
p474
sS'KIRC:316:Tumor'
p475
S'KIRC:317:Normal'
p476
sS'KIRC:234:Tumor'
p477
S'KIRC:235:Normal'
p478
sS'BRCA:499691:Tumor'
p479
S'BRCA:499557:Normal'
p480
sS'BRCApos:499699:Tumor'
p481
S'BRCApos:499565:Normal'
p482
sS'PRADLODA:cp12:Tumor'
p483
S'PRADLODA:cp22:Normal'
p484
sS'BRCApos:499753:Tumor'
p485
S'BRCApos:499623:Normal'
p486
sS'KIRC:246:Tumor'
p487
S'KIRC:247:Normal'
p488
sS'BRCAneg:499767:Tumor'
p489
S'BRCAneg:499631:Normal'
p490
sS'KIRC:382:Tumor'
p491
S'KIRC:383:Normal'
p492
sS'KIRC:330:Tumor'
p493
S'KIRC:331:Normal'
p494
sS'BRCA:499767:Tumor'
p495
S'BRCA:499631:Normal'
p496
sS'BRCAneg:499771:Tumor'
p497
S'BRCAneg:499635:Normal'
p498
sS'PAAD:22210-0061Tumor:Tumor'
p499
S'PAAD:22210-0061Normal:Normal'
p500
sS'PAAD:22210-0002Tumor:Tumor'
p501
S'PAAD:22210-0002Normal:Normal'
p502
sS'STAD:9:Tumor'
p503
S'STAD:9:Normal'
p504
sS'PAAD:22210-0021Tumor:Tumor'
p505
S'PAAD:22210-0021Normal:Normal'
p506
sS'PAADHussain2:NCIA-04175:Tumor'
p507
S'PAADHussain2:NCIA-04176:Normal'
p508
sS'BLCA:P14T.EU:Tumor'
p509
S'BLCA:P14N.EU:Normal'
p510
sS'BRCAneg:499743:Tumor'
p511
S'BRCAneg:499609:Normal'
p512
sS'KIRC:372:Tumor'
p513
S'KIRC:373:Normal'
p514
sS'PAADHussain2:NCIA-04183:Tumor'
p515
S'PAADHussain2:NCIA-04184:Normal'
p516
sS'BRCApos:499773:Tumor'
p517
S'BRCApos:499637:Normal'
p518
sS'PRAD:T8:Tumor'
p519
S'PRAD:N8:Normal'
p520
sS'KIRC:272:Tumor'
p521
S'KIRC:273:Normal'
p522
sS'PRADLODA:cp47:Tumor'
p523
S'PRADLODA:cp55:Normal'
p524
sS'KIRC:356:Tumor'
p525
S'KIRC:357:Normal'
p526
sS'PAAD:22210-0008Tumor:Tumor'
p527
S'PAAD:22210-0008Normal:Normal'
p528
sS'PAADHussain1:NCIA-01782:Tumor'
p529
S'PAADHussain1:NCIA-01781:Normal'
p530
sS'BRCA:499783:Tumor'
p531
S'BRCA:499647:Normal'
p532
sS'PAAD:22210-0011Tumor:Tumor'
p533
S'PAAD:22210-0011Normal:Normal'
p534
sS'BRCA:499759:Tumor'
p535
S'BRCA:499625:Normal'
p536
sS'PRAD:T6:Tumor'
p537
S'PRAD:N6:Normal'
p538
sS'KIRC:29:Tumor'
p539
S'KIRC:30:Normal'
p540
sS'BRCA:499713:Tumor'
p541
S'BRCA:499579:Normal'
p542
sS'PAAD:22210-0014Tumor:Tumor'
p543
S'PAAD:22210-0014Normal:Normal'
p544
sS'KICH:RCC3:Tumor'
p545
S'KICH:RCC4:Normal'
p546
sS'KIRC:220:Tumor'
p547
S'KIRC:221:Normal'
p548
sS'KICH:RCC21:Tumor'
p549
S'KICH:RCC22:Normal'
p550
sS'PAAD:22210-0072Tumor:Tumor'
p551
S'PAAD:22210-0072Normal:Normal'
p552
sS'KIRC:336:Tumor'
p553
S'KIRC:337:Normal'
p554
sS'PRADLODA:cp25:Tumor'
p555
S'PRADLODA:cp26:Normal'
p556
sS'PAAD:22210-0035Tumor:Tumor'
p557
S'PAAD:22210-0035Normal:Normal'
p558
sS'BRCA:499701:Tumor'
p559
S'BRCA:499567:Normal'
p560
sS'BRCA:499727:Tumor'
p561
S'BRCA:499595:Normal'
p562
sS'BRCA:499781:Tumor'
p563
S'BRCA:499645:Normal'
p564
sS'BLCA:P2T.EU:Tumor'
p565
S'BLCA:P2N.EU:Normal'
p566
sS'KIRC:193:Tumor'
p567
S'KIRC:194:Normal'
p568
sS'KIRC:9:Tumor'
p569
S'KIRC:10:Normal'
p570
sS'BRCAneg:499785:Tumor'
p571
S'BRCAneg:499649:Normal'
p572
sS'PRADLODA:cp49:Tumor'
p573
S'PRADLODA:cp58:Normal'
p574
sS'BRCA:499787:Tumor'
p575
S'BRCA:499651:Normal'
p576
sS'BRCAneg:499661:Tumor'
p577
S'BRCAneg:499531:Normal'
p578
sS'BRCA:499675:Tumor'
p579
S'BRCA:499545:Normal'
p580
sS'KIRC:232:Tumor'
p581
S'KIRC:233:Normal'
p582
sS'PAADHussain2:NCIA-04171:Tumor'
p583
S'PAADHussain2:NCIA-04172:Normal'
p584
sS'BRCAneg:499725:Tumor'
p585
S'BRCAneg:499591:Normal'
p586
sS'KIRC:254:Tumor'
p587
S'KIRC:255:Normal'
p588
sS'PAAD:22210-0086Tumor:Tumor'
p589
S'PAAD:22210-0086Normal:Normal'
p590
sS'PAAD:22210-0028Tumor:Tumor'
p591
S'PAAD:22210-0028Normal:Normal'
p592
sS'KIRC:109:Tumor'
p593
S'KIRC:110:Normal'
p594
sS'STAD:11:Tumor'
p595
S'STAD:11:Normal'
p596
sS'KIRC:260:Tumor'
p597
S'KIRC:261:Normal'
p598
sS'BRCApos:499781:Tumor'
p599
S'BRCApos:499645:Normal'
p600
sS'PRADLODA:cp14:Tumor'
p601
S'PRADLODA:cp18:Normal'
p602
sS'KIRC:69:Tumor'
p603
S'KIRC:70:Normal'
p604
sS'COAD:7:Tumor'
p605
S'COAD:7:Normal'
p606
sS'PAAD:22210-0078Tumor:Tumor'
p607
S'PAAD:22210-0078Normal:Normal'
p608
sS'KIRC:171:Tumor'
p609
S'KIRC:172:Normal'
p610
sS'PAAD:22210-0080Tumor:Tumor'
p611
S'PAAD:22210-0080Normal:Normal'
p612
sS'BLCA:P12T.MCG:Tumor'
p613
S'BLCA:P7N.MCG:Normal'
p614
sS'PAADHussain2:NCIA-04187:Tumor'
p615
S'PAADHussain2:NCIA-04188:Normal'
p616
sS'PAAD:22210-0040Tumor:Tumor'
p617
S'PAAD:22210-0040Normal:Normal'
p618
sS'KIRC:181:Tumor'
p619
S'KIRC:182:Normal'
p620
sS'PRADLODA:cp24:Tumor'
p621
S'PRADLODA:cp27:Normal'
p622
sS'PAAD:22210-0063Tumor:Tumor'
p623
S'PAAD:22210-0063Normal:Normal'
p624
sS'PAAD:22210-0030Tumor:Tumor'
p625
S'PAAD:22210-0030Normal:Normal'
p626
sS'PAADHussain2:NCIA-04169:Tumor'
p627
S'PAADHussain2:NCIA-04170:Normal'
p628
sS'BRCAneg:499695:Tumor'
p629
S'BRCAneg:499561:Normal'
p630
sS'PAADHussain1:NCIA-01794:Tumor'
p631
S'PAADHussain1:NCIA-01793:Normal'
p632
sS'PAAD:22210-0016Tumor:Tumor'
p633
S'PAAD:22210-0016Normal:Normal'
p634
sS'KIRC:236:Tumor'
p635
S'KIRC:237:Normal'
p636
sS'KIRC:3:Tumor'
p637
S'KIRC:4:Normal'
p638
sS'BRCA:499765:Tumor'
p639
S'BRCA:499629:Normal'
p640
sS'BRCA:499681:Tumor'
p641
S'BRCA:499551:Normal'
p642
sS'KIRC:228:Tumor'
p643
S'KIRC:229:Normal'
p644
sS'BRCAneg:499721:Tumor'
p645
S'BRCAneg:499587:Normal'
p646
sS'PAADHussain1:NCIA-01790:Tumor'
p647
S'PAADHussain1:NCIA-01789:Normal'
p648
sS'BRCA:499671:Tumor'
p649
S'BRCA:499541:Normal'
p650
sS'BRCAneg:499667:Tumor'
p651
S'BRCAneg:499537:Normal'
p652
sS'BRCAneg:499763:Tumor'
p653
S'BRCAneg:499627:Normal'
p654
sS'BRCA:499657:Tumor'
p655
S'BRCA:499527:Normal'
p656
sS'BLCA:P7T.MCG:Tumor'
p657
S'BLCA:P3N.MCG:Normal'
p658
sS'BRCA:499715:Tumor'
p659
S'BRCA:499581:Normal'
p660
sS'COAD:6:Tumor'
p661
S'COAD:6:Normal'
p662
sS'BRCAneg:499777:Tumor'
p663
S'BRCAneg:499641:Normal'
p664
sS'BRCApos:499751:Tumor'
p665
S'BRCApos:499617:Normal'
p666
sS'BRCA:499743:Tumor'
p667
S'BRCA:499609:Normal'
p668
sS'KIRC:248:Tumor'
p669
S'KIRC:249:Normal'
p670
sS'PAAD:22210-0065Tumor:Tumor'
p671
S'PAAD:22210-0065Normal:Normal'
p672
sS'PAAD:22210-0077Tumor:Tumor'
p673
S'PAAD:22210-0077Normal:Normal'
p674
sS'PAAD:22210-0047Tumor:Tumor'
p675
S'PAAD:22210-0047Normal:Normal'
p676
sS'BRCAneg:499723:Tumor'
p677
S'BRCAneg:499589:Normal'
p678
sS'KIRC:73:Tumor'
p679
S'KIRC:74:Normal'
p680
sS'KIRC:218:Tumor'
p681
S'KIRC:219:Normal'
p682
sS'KIRC:59:Tumor'
p683
S'KIRC:60:Normal'
p684
sS'BRCA:499757:Tumor'
p685
S'BRCA:499621:Normal'
p686
sS'BRCA:499703:Tumor'
p687
S'BRCA:499569:Normal'
p688
sS'BRCA:499683:Tumor'
p689
S'BRCA:499603:Normal'
p690
sS'COAD:1:Tumor'
p691
S'COAD:1:Normal'
p692
sS'PAADHussain1:NCIA-01764:Tumor'
p693
S'PAADHussain1:NCIA-01763:Normal'
p694
sS'PAAD:22210-0068Tumor:Tumor'
p695
S'PAAD:22210-0068Normal:Normal'
p696
sS'KICH:RCC7:Tumor'
p697
S'KICH:RCC8:Normal'
p698
sS'BLCA:P10T.EU:Tumor'
p699
S'BLCA:P10N.EU:Normal'
p700
sS'PAAD:22210-0090Tumor:Tumor'
p701
S'PAAD:22210-0090Normal:Normal'
p702
sS'PRADLODA:cp37:Tumor'
p703
S'PRADLODA:cp30:Normal'
p704
sS'STAD:5:Tumor'
p705
S'STAD:5:Normal'
p706
sS'KIRC:187:Tumor'
p707
S'KIRC:188:Normal'
p708
sS'BLCA:P10T.MCG:Tumor'
p709
S'BLCA:P5N.MCG:Normal'
p710
sS'BLCA:P3T.EU:Tumor'
p711
S'BLCA:P3N.EU:Normal'
p712
sS'PRAD:T1:Tumor'
p713
S'PRAD:N1:Normal'
p714
sS'KIRC:374:Tumor'
p715
S'KIRC:375:Normal'
p716
sS'BRCAneg:499727:Tumor'
p717
S'BRCAneg:499595:Normal'
p718
sS'PAAD:22210-0015Tumor:Tumor'
p719
S'PAAD:22210-0015Normal:Normal'
p720
sS'PAAD:22210-0044Tumor:Tumor'
p721
S'PAAD:22210-0044Normal:Normal'
p722
sS'KIRC:306:Tumor'
p723
S'KIRC:307:Normal'
p724
sS'PRADLODA:cp23:Tumor'
p725
S'PRADLODA:cp28:Normal'
p726
sS'BLCA:P8T.MCG:Tumor'
p727
S'BLCA:P11N.MCG:Normal'
p728
sS'KIRC:238:Tumor'
p729
S'KIRC:239:Normal'
p730
sS'BRCApos:499685:Tumor'
p731
S'BRCApos:499553:Normal'
p732
sS'BRCApos:499707:Tumor'
p733
S'BRCApos:499573:Normal'
p734
sS'BRCA:499729:Tumor'
p735
S'BRCA:499593:Normal'
p736
sS'BRCA:499769:Tumor'
p737
S'BRCA:499633:Normal'
p738
sS'COAD:16:Tumor'
p739
S'COAD:16:Normal'
p740
sS'PRAD:T7:Tumor'
p741
S'PRAD:N7:Normal'
p742
sS'KIRC:406:Tumor'
p743
S'KIRC:407:Normal'
p744
sS'PRADLODA:cp70:Tumor'
p745
S'PRADLODA:cp73:Normal'
p746
sS'KIRC:155:Tumor'
p747
S'KIRC:156:Normal'
p748
sS'KIRC:384:Tumor'
p749
S'KIRC:385:Normal'
p750
sS'BRCAneg:499765:Tumor'
p751
S'BRCAneg:499629:Normal'
p752
sS'BRCA:499771:Tumor'
p753
S'BRCA:499635:Normal'
p754
sS'PAADHussain1:NCIA-01792:Tumor'
p755
S'PAADHussain1:NCIA-01791:Normal'
p756
sS'BLCA:P2T.MCG:Tumor'
p757
S'BLCA:P2N.MCG:Normal'
p758
sS'COAD:4:Tumor'
p759
S'COAD:4:Normal'
p760
sS'PAAD:22210-0075Tumor:Tumor'
p761
S'PAAD:22210-0075Normal:Normal'
p762
sS'PRAD:T3:Tumor'
p763
S'PRAD:N3:Normal'
p764
sS'STAD:3:Tumor'
p765
S'STAD:3:Normal'
p766
sS'PRADLODA:cp36:Tumor'
p767
S'PRADLODA:cp29:Normal'
p768
sS'BRCA:499751:Tumor'
p769
S'BRCA:499617:Normal'
p770
sS'BRCAneg:499683:Tumor'
p771
S'BRCAneg:499603:Normal'
p772
sS'PAADHussain2:NCIA-04181:Tumor'
p773
S'PAADHussain2:NCIA-04182:Normal'
p774
sS'KIRC:63:Tumor'
p775
S'KIRC:64:Normal'
p776
sS'KIRC:61:Tumor'
p777
S'KIRC:62:Normal'
p778
sS'KIRC:312:Tumor'
p779
S'KIRC:313:Normal'
p780
sS'BLCA:P15T.MCG:Tumor'
p781
S'BLCA:P10N.MCG:Normal'
p782
sS'PAAD:22210-0020Tumor:Tumor'
p783
S'PAAD:22210-0020Normal:Normal'
p784
sS'PAADHussain2:NCIA-04165:Tumor'
p785
S'PAADHussain2:NCIA-04166:Normal'
p786
sS'KIRC:328:Tumor'
p787
S'KIRC:329:Normal'
p788
sS'BRCA:499745:Tumor'
p789
S'BRCA:499611:Normal'
p790
sS'KIRC:348:Tumor'
p791
S'KIRC:349:Normal'
p792
sS'KIRC:320:Tumor'
p793
S'KIRC:321:Normal'
p794
sS'COAD:5:Tumor'
p795
S'COAD:5:Normal'
p796
sS'KIRC:296:Tumor'
p797
S'KIRC:297:Normal'
p798
sS'KIRC:87:Tumor'
p799
S'KIRC:88:Normal'
p800
sS'BRCA:499735:Tumor'
p801
S'BRCA:499601:Normal'
p802
sS'COAD:12:Tumor'
p803
S'COAD:12:Normal'
p804
sS'PAADHussain1:NCIA-01752:Tumor'
p805
S'PAADHussain1:NCIA-01751:Normal'
p806
sS'KIRC:388:Tumor'
p807
S'KIRC:389:Normal'
p808
sS'PAADHussain1:NCIA-01772:Tumor'
p809
S'PAADHussain1:NCIA-01771:Normal'
p810
sS'KIRC:398:Tumor'
p811
S'KIRC:399:Normal'
p812
sS'BLCA:P6T.EU:Tumor'
p813
S'BLCA:P6N.EU:Normal'
p814
sS'BRCA:499737:Tumor'
p815
S'BRCA:499605:Normal'
p816
sS'BRCA:499785:Tumor'
p817
S'BRCA:499649:Normal'
p818
sS'PRADLODA:cp10:Tumor'
p819
S'PRADLODA:cp21:Normal'
p820
sS'KIRC:7:Tumor'
p821
S'KIRC:8:Normal'
p822
sS'PRADLODA:cp52:Tumor'
p823
S'PRADLODA:cp57:Normal'
p824
sS'KIRC:31:Tumor'
p825
S'KIRC:32:Normal'
p826
sS'KICH:RCC11:Tumor'
p827
S'KICH:RCC12:Normal'
p828
sS'BRCAneg:499761:Tumor'
p829
S'BRCAneg:499653:Normal'
p830
sS'BRCApos:499679:Tumor'
p831
S'BRCApos:499549:Normal'
p832
sS'BRCA:499697:Tumor'
p833
S'BRCA:499563:Normal'
p834
sS'KIRC:338:Tumor'
p835
S'KIRC:339:Normal'
p836
sS'STAD:8:Tumor'
p837
S'STAD:8:Normal'
p838
sS'KIRC:143:Tumor'
p839
S'KIRC:144:Normal'
p840
sS'BRCA:499661:Tumor'
p841
S'BRCA:499531:Normal'
p842
sS'PRADLODA:cp16:Tumor'
p843
S'PRADLODA:cp17:Normal'
p844
sS'PAADHussain2:NCIA-04173:Tumor'
p845
S'PAADHussain2:NCIA-04174:Normal'
p846
sS'KIRC:27:Tumor'
p847
S'KIRC:28:Normal'
p848
sS'KIRC:342:Tumor'
p849
S'KIRC:343:Normal'
p850
sS'BRCApos:499705:Tumor'
p851
S'BRCApos:499571:Normal'
p852
sS'STAD:1:Tumor'
p853
S'STAD:1:Normal'
p854
sS'KIRC:288:Tumor'
p855
S'KIRC:289:Normal'
p856
sS'BLCA:P13T.EU:Tumor'
p857
S'BLCA:P13N.EU:Normal'
p858
sS'BRCAneg:499713:Tumor'
p859
S'BRCAneg:499579:Normal'
p860
sS'KIRC:93:Tumor'
p861
S'KIRC:94:Normal'
p862
sS'BRCA:499677:Tumor'
p863
S'BRCA:499547:Normal'
p864
sS'STAD:10:Tumor'
p865
S'STAD:10:Normal'
p866
sS'BRCA:499711:Tumor'
p867
S'BRCA:499577:Normal'
p868
sS'BRCA:499667:Tumor'
p869
S'BRCA:499537:Normal'
p870
sS'BRCAneg:499737:Tumor'
p871
S'BRCAneg:499605:Normal'
p872
sS'BRCA:499663:Tumor'
p873
S'BRCA:499535:Normal'
p874
sS'BRCA:499753:Tumor'
p875
S'BRCA:499623:Normal'
p876
sS'BRCA:499679:Tumor'
p877
S'BRCA:499549:Normal'
p878
sS'BLCA:P12T.EU:Tumor'
p879
S'BLCA:P12N.EU:Normal'
p880
sS'KIRC:189:Tumor'
p881
S'KIRC:190:Normal'
p882
sS'BLCA:P11T.EU:Tumor'
p883
S'BLCA:P11N.EU:Normal'
p884
sS'BLCA:P4T.EU:Tumor'
p885
S'BLCA:P4N.EU:Normal'
p886
sS'KIRC:258:Tumor'
p887
S'KIRC:259:Normal'
p888
sS'KIRC:75:Tumor'
p889
S'KIRC:76:Normal'
p890
sS'KIRC:270:Tumor'
p891
S'KIRC:271:Normal'
p892
sS'PAAD:22210-0007Tumor:Tumor'
p893
S'PAAD:22210-0007Normal:Normal'
p894
sS'KIRC:390:Tumor'
p895
S'KIRC:391:Normal'
p896
s.